target datalayout = "e-m:e-p270:32:32-p271:32:32-p272:64:64-i64:64-i128:128-f80:128-n8:16:32:64-S128"
target triple = "x86_64-unknown-linux-gnu"

module asm ".section\09\22.initcall7.init\22, \22a\22\09\09"
module asm "__initcall__kmod_timekeeping_debug__408_44_tk_debug_sleep_time_init7:\09\09\09"
module asm ".long\09tk_debug_sleep_time_init - .\09"
module asm ".previous\09\09\09\09\09"

%struct.file_operations = type { ptr, ptr, ptr, ptr, ptr, ptr, ptr, ptr, ptr, ptr, ptr, ptr, i64, ptr, ptr, ptr, ptr, ptr, ptr, ptr, ptr, ptr, ptr, ptr, ptr, ptr, ptr, ptr, ptr, ptr, ptr, ptr, ptr }

@__UNIQUE_ID___addressable_tk_debug_sleep_time_init409 = internal global ptr @tk_debug_sleep_time_init, section ".discard.addressable", align 8
@sleep_time_bin = internal unnamed_addr global [32 x i32] zeroinitializer, align 16
@.str = private unnamed_addr constant [48 x i8] c"\017Timekeeping suspended for %lld.%03lu seconds\0A\00", align 1
@.str.1 = private unnamed_addr constant [11 x i8] c"sleep_time\00", align 1
@tk_debug_sleep_time_fops = internal constant %struct.file_operations { ptr null, ptr @seq_lseek, ptr @seq_read, ptr null, ptr null, ptr null, ptr null, ptr null, ptr null, ptr null, ptr null, ptr null, i64 0, ptr @tk_debug_sleep_time_open, ptr null, ptr @single_release, ptr null, ptr null, ptr null, ptr null, ptr null, ptr null, ptr null, ptr null, ptr null, ptr null, ptr null, ptr null, ptr null, ptr null, ptr null, ptr null, ptr null }, align 8
@.str.2 = private unnamed_addr constant [32 x i8] c"      time (secs)        count\0A\00", align 1
@.str.3 = private unnamed_addr constant [32 x i8] c"------------------------------\0A\00", align 1
@.str.4 = private unnamed_addr constant [18 x i8] c"%10u - %-10u %4u\0A\00", align 1
@llvm.compiler.used = appending global [1 x ptr] [ptr @__UNIQUE_ID___addressable_tk_debug_sleep_time_init409], section "llvm.metadata"

; Function Attrs: cold fn_ret_thunk_extern nounwind null_pointer_is_valid optsize
define internal noundef i32 @tk_debug_sleep_time_init() #0 section ".init.text" align 16 {
  %1 = tail call ptr @debugfs_create_file(ptr noundef nonnull @.str.1, i16 noundef zeroext 292, ptr noundef null, ptr noundef null, ptr noundef nonnull @tk_debug_sleep_time_fops) #5
  ret i32 0
}

; Function Attrs: fn_ret_thunk_extern nounwind null_pointer_is_valid
define dso_local void @tk_debug_account_sleep_time(ptr nocapture noundef readonly %0) local_unnamed_addr #1 align 16 {
  %2 = load i64, ptr %0, align 8
  %3 = trunc i64 %2 to i32
  %4 = tail call i32 asm "bsrl $1,$0", "=r,rm,0,~{dirflag},~{fpsr},~{flags}"(i32 %3, i32 -1) #6, !srcloc !5
  %5 = add i32 %4, 1
  %6 = tail call i32 @llvm.smin.i32(i32 %5, i32 31)
  %7 = sext i32 %6 to i64
  %8 = getelementptr [32 x i32], ptr @sleep_time_bin, i64 0, i64 %7
  %9 = load i32, ptr %8, align 4
  %10 = add i32 %9, 1
  store i32 %10, ptr %8, align 4
  %11 = tail call zeroext i1 @pm_debug_messages_should_print() #5
  br i1 %11, label %12, label %18

12:                                               ; preds = %1
  %13 = load i64, ptr %0, align 8
  %14 = getelementptr inbounds i8, ptr %0, i64 8
  %15 = load i64, ptr %14, align 8
  %16 = sdiv i64 %15, 1000000
  %17 = tail call i32 (ptr, ...) @_printk_deferred(ptr noundef nonnull @.str, i64 noundef %13, i64 noundef %16) #7
  br label %18

18:                                               ; preds = %12, %1
  ret void
}

; Function Attrs: null_pointer_is_valid
declare dso_local zeroext i1 @pm_debug_messages_should_print() local_unnamed_addr #2

; Function Attrs: cold null_pointer_is_valid
declare dso_local i32 @_printk_deferred(ptr noundef, ...) local_unnamed_addr #3

; Function Attrs: null_pointer_is_valid
declare dso_local ptr @debugfs_create_file(ptr noundef, i16 noundef zeroext, ptr noundef, ptr noundef, ptr noundef) local_unnamed_addr #2

; Function Attrs: null_pointer_is_valid
declare dso_local i64 @seq_lseek(ptr noundef, i64 noundef, i32 noundef) #2

; Function Attrs: null_pointer_is_valid
declare dso_local i64 @seq_read(ptr noundef, ptr noundef, i64 noundef, ptr noundef) #2

; Function Attrs: fn_ret_thunk_extern nounwind null_pointer_is_valid
define internal i32 @tk_debug_sleep_time_open(ptr nocapture noundef readonly %0, ptr noundef %1) #1 align 16 {
  %3 = getelementptr inbounds i8, ptr %0, i64 592
  %4 = load ptr, ptr %3, align 8
  %5 = tail call i32 @single_open(ptr noundef %1, ptr noundef nonnull @tk_debug_sleep_time_show, ptr noundef %4) #5
  ret i32 %5
}

; Function Attrs: null_pointer_is_valid
declare dso_local i32 @single_release(ptr noundef, ptr noundef) #2

; Function Attrs: null_pointer_is_valid
declare dso_local i32 @single_open(ptr noundef, ptr noundef, ptr noundef) local_unnamed_addr #2

; Function Attrs: fn_ret_thunk_extern nounwind null_pointer_is_valid
define internal noundef i32 @tk_debug_sleep_time_show(ptr noundef %0, ptr nocapture readnone %1) #1 align 16 {
  tail call void @seq_puts(ptr noundef %0, ptr noundef nonnull @.str.2) #5
  tail call void @seq_puts(ptr noundef %0, ptr noundef nonnull @.str.3) #5
  br label %3

3:                                                ; preds = %16, %2
  %4 = phi i64 [ 0, %2 ], [ %17, %16 ]
  %5 = getelementptr [32 x i32], ptr @sleep_time_bin, i64 0, i64 %4
  %6 = load i32, ptr %5, align 4
  %7 = icmp eq i32 %6, 0
  br i1 %7, label %16, label %8

8:                                                ; preds = %3
  %9 = icmp eq i64 %4, 0
  %10 = trunc i64 %4 to i32
  %11 = add i32 %10, -1
  %12 = shl nuw nsw i32 1, %11
  %13 = select i1 %9, i32 0, i32 %12
  %14 = trunc i64 %4 to i32
  %15 = shl nuw i32 1, %14
  tail call void (ptr, ptr, ...) @seq_printf(ptr noundef %0, ptr noundef nonnull @.str.4, i32 noundef %13, i32 noundef %15, i32 noundef %6) #5
  br label %16

16:                                               ; preds = %8, %3
  %17 = add nuw nsw i64 %4, 1
  %18 = icmp eq i64 %17, 32
  br i1 %18, label %19, label %3, !llvm.loop !6

19:                                               ; preds = %16
  ret i32 0
}

; Function Attrs: null_pointer_is_valid
declare dso_local void @seq_puts(ptr noundef, ptr noundef) local_unnamed_addr #2

; Function Attrs: null_pointer_is_valid
declare dso_local void @seq_printf(ptr noundef, ptr noundef, ...) local_unnamed_addr #2

; Function Attrs: nocallback nofree nosync nounwind speculatable willreturn memory(none)
declare i32 @llvm.smin.i32(i32, i32) #4


!llvm.module.flags = !{!0, !1, !2, !3, !4}

!0 = !{i32 1, !"wchar_size", i32 2}
!1 = !{i32 8, !"cf-protection-branch", i32 1}
!2 = !{i32 4, !"function_return_thunk_extern", i32 1}
!3 = !{i32 4, !"indirect_branch_cs_prefix", i32 1}
!4 = !{i32 4, !"SkipRaxSetup", i32 1}
!5 = !{i64 1073546}
!6 = distinct !{!6, !7, !8}
!7 = !{!"llvm.loop.mustprogress"}
!8 = !{!"llvm.loop.unroll.disable"}
